; Function Attrs: mustprogress nofree norecurse nosync nounwind willreturn memory(argmem: readwrite) uwtable
define hidden void @_ZN19OpenColorIO_v2_5dev19FixedFunctionOpData12setDirectionENS_18TransformDirectionE(ptr noundef nonnull align 8 captures(none) dereferenceable(200) %0, i32 noundef %1) local_unnamed_addr #8 align 2 {
  %3 = getelementptr inbounds nuw i8, ptr %0, i64 168
  %4 = load i32, ptr %3, align 8, !tbaa !15
  %switch.tableidx = add i32 %4, -1
  %5 = icmp ult i32 %switch.tableidx, 35
  br i1 %5, label %switch.lookup, label %_ZNK19OpenColorIO_v2_5dev19FixedFunctionOpData12getDirectionEv.exit

switch.lookup:                                    ; preds = %2
  %6 = zext nneg i32 %switch.tableidx to i64
  %switch.gep = getelementptr inbounds nuw [35 x i32], ptr @switch.table._ZN19OpenColorIO_v2_5dev19FixedFunctionOpData12setDirectionENS_18TransformDirectionE, i64 0, i64 %6
  %switch.load = load i32, ptr %switch.gep, align 4
  br label %_ZNK19OpenColorIO_v2_5dev19FixedFunctionOpData12getDirectionEv.exit

_ZNK19OpenColorIO_v2_5dev19FixedFunctionOpData12getDirectionEv.exit: ; preds = %switch.lookup, %2
  %.0.i = phi i32 [ 0, %2 ], [ %switch.load, %switch.lookup ]
  %.not = icmp ne i32 %.0.i, %1
  %7 = icmp ult i32 %4, 36
  %or.cond = and i1 %.not, %7
  br i1 %or.cond, label %switch.lookup1, label %_ZN19OpenColorIO_v2_5dev19FixedFunctionOpData6invertEv.exit

switch.lookup1:                                   ; preds = %_ZNK19OpenColorIO_v2_5dev19FixedFunctionOpData12getDirectionEv.exit
  %8 = zext nneg i32 %4 to i64
  %switch.gep2 = getelementptr inbounds nuw [36 x i32], ptr @switch.table._ZN19OpenColorIO_v2_5dev19FixedFunctionOpData12setDirectionENS_18TransformDirectionE.1, i64 0, i64 %8
  %switch.load3 = load i32, ptr %switch.gep2, align 4
  store i32 %switch.load3, ptr %3, align 8, !tbaa !15
  br label %_ZN19OpenColorIO_v2_5dev19FixedFunctionOpData6invertEv.exit

_ZN19OpenColorIO_v2_5dev19FixedFunctionOpData6invertEv.exit: ; preds = %switch.lookup1, %_ZNK19OpenColorIO_v2_5dev19FixedFunctionOpData12getDirectionEv.exit
  ret void
}